target datalayout = "e-m:e-p270:32:32-p271:32:32-p272:64:64-i64:64-i128:128-f80:128-n8:16:32:64-S128"
target triple = "x86_64-pc-linux-gnu"

%struct.nghttp2_stream = type { i32, %struct.nghttp2_pq_entry, i64, i64, i64, i64, ptr, ptr, ptr, i64, i32, i32, i32, i32, i32, i32, i32, i16, i32, i8, i8, i8, i8, i8, i8 }
%struct.nghttp2_pq_entry = type { i64 }

; Function Attrs: nounwind uwtable
define hidden i32 @nghttp2_stream_check_deferred_by_flow_control(ptr noundef %0) #0 {
  %2 = alloca ptr, align 8
  store ptr %0, ptr %2, align 8, !tbaa !3
  %3 = load ptr, ptr %2, align 8, !tbaa !3
  %4 = getelementptr inbounds nuw %struct.nghttp2_stream, ptr %3, i32 0, i32 8
  %5 = load ptr, ptr %4, align 8, !tbaa !22
  %6 = icmp ne ptr %5, null
  br i1 %6, label %7, label %14

7:                                                ; preds = %1
  %8 = load ptr, ptr %2, align 8, !tbaa !3
  %9 = getelementptr inbounds nuw %struct.nghttp2_stream, ptr %8, i32 0, i32 19
  %10 = load i8, ptr %9, align 4, !tbaa !18
  %11 = zext i8 %10 to i32
  %12 = and i32 %11, 4
  %13 = icmp ne i32 %12, 0
  br label %14

14:                                               ; preds = %7, %1
  %15 = phi i1 [ false, %1 ], [ %13, %7 ]
  %16 = zext i1 %15 to i32
  ret i32 %16
}