; Function Attrs: mustprogress nofree norecurse nosync nounwind willreturn memory(argmem: read) uwtable
define hidden range(i32 0, 2) i32 @nghttp2_stream_check_deferred_by_flow_control(ptr noundef readonly captures(none) %0) local_unnamed_addr #5 {
  %2 = getelementptr inbounds nuw i8, ptr %0, i64 64
  %3 = load ptr, ptr %2, align 8, !tbaa !18
  %.not = icmp eq ptr %3, null
  br i1 %.not, label %9, label %4

4:                                                ; preds = %1
  %5 = getelementptr inbounds nuw i8, ptr %0, i64 116
  %6 = load i8, ptr %5, align 4, !tbaa !14
  %7 = lshr i8 %6, 2
  %.lobit = and i8 %7, 1
  %8 = zext nneg i8 %.lobit to i32
  br label %9

9:                                                ; preds = %4, %1
  %10 = phi i32 [ 0, %1 ], [ %8, %4 ]
  ret i32 %10
}